target datalayout = "e-m:e-p270:32:32-p271:32:32-p272:64:64-i64:64-i128:128-f80:128-n8:16:32:64-S128"
target triple = "x86_64-pc-linux-gnu"

%struct.UriMemoryManagerStruct = type { ptr, ptr, ptr, ptr, ptr, ptr }
%struct.UriUriStructW = type { %struct.UriTextRangeStructW, %struct.UriTextRangeStructW, %struct.UriTextRangeStructW, %struct.UriHostDataStructW, %struct.UriTextRangeStructW, ptr, ptr, %struct.UriTextRangeStructW, %struct.UriTextRangeStructW, i32, i32, ptr }
%struct.UriHostDataStructW = type { ptr, ptr, %struct.UriTextRangeStructW }
%struct.UriTextRangeStructW = type { ptr, ptr }
%struct.UriPathSegmentStructW = type { %struct.UriTextRangeStructW, ptr, ptr }

@uriSafeToPointToW = external constant ptr, align 8

; Function Attrs: nounwind uwtable
define internal i32 @uriResolveAbsolutePathFlagW(ptr noundef %0, ptr noundef %1) #0 {
  %3 = alloca i32, align 4
  %4 = alloca ptr, align 8
  %5 = alloca ptr, align 8
  %6 = alloca ptr, align 8
  %7 = alloca i32, align 4
  store ptr %0, ptr %4, align 8, !tbaa !25
  store ptr %1, ptr %5, align 8, !tbaa !10
  %8 = load ptr, ptr %4, align 8, !tbaa !25
  %9 = icmp eq ptr %8, null
  br i1 %9, label %10, label %11

10:                                               ; preds = %2
  store i32 2, ptr %3, align 4
  br label %58

11:                                               ; preds = %2
  %12 = load ptr, ptr %4, align 8, !tbaa !25
  %13 = call i32 @uriIsHostSetW(ptr noundef %12)
  %14 = icmp ne i32 %13, 0
  br i1 %14, label %15, label %57

15:                                               ; preds = %11
  %16 = load ptr, ptr %4, align 8, !tbaa !25
  %17 = getelementptr inbounds nuw %struct.UriUriStructW, ptr %16, i32 0, i32 9
  %18 = load i32, ptr %17, align 8, !tbaa !36
  %19 = icmp ne i32 %18, 0
  br i1 %19, label %20, label %57

20:                                               ; preds = %15
  %21 = load ptr, ptr %4, align 8, !tbaa !25
  %22 = getelementptr inbounds nuw %struct.UriUriStructW, ptr %21, i32 0, i32 5
  %23 = load ptr, ptr %22, align 8, !tbaa !35
  %24 = icmp eq ptr %23, null
  br i1 %24, label %25, label %54

25:                                               ; preds = %20
  call void @llvm.lifetime.start.p0(i64 8, ptr %6) #5
  %26 = load ptr, ptr %5, align 8, !tbaa !10
  %27 = getelementptr inbounds nuw %struct.UriMemoryManagerStruct, ptr %26, i32 0, i32 0
  %28 = load ptr, ptr %27, align 8, !tbaa !38
  %29 = load ptr, ptr %5, align 8, !tbaa !10
  %30 = call ptr %28(ptr noundef %29, i64 noundef 32)
  store ptr %30, ptr %6, align 8, !tbaa !46
  %31 = load ptr, ptr %6, align 8, !tbaa !46
  %32 = icmp eq ptr %31, null
  br i1 %32, label %33, label %34

33:                                               ; preds = %25
  store i32 3, ptr %3, align 4
  store i32 1, ptr %7, align 4
  br label %51

34:                                               ; preds = %25
  %35 = load ptr, ptr @uriSafeToPointToW, align 8, !tbaa !34
  %36 = load ptr, ptr %6, align 8, !tbaa !46
  %37 = getelementptr inbounds nuw %struct.UriPathSegmentStructW, ptr %36, i32 0, i32 0
  %38 = getelementptr inbounds nuw %struct.UriTextRangeStructW, ptr %37, i32 0, i32 0
  store ptr %35, ptr %38, align 8, !tbaa !47
  %39 = load ptr, ptr @uriSafeToPointToW, align 8, !tbaa !34
  %40 = load ptr, ptr %6, align 8, !tbaa !46
  %41 = getelementptr inbounds nuw %struct.UriPathSegmentStructW, ptr %40, i32 0, i32 0
  %42 = getelementptr inbounds nuw %struct.UriTextRangeStructW, ptr %41, i32 0, i32 1
  store ptr %39, ptr %42, align 8, !tbaa !49
  %43 = load ptr, ptr %6, align 8, !tbaa !46
  %44 = getelementptr inbounds nuw %struct.UriPathSegmentStructW, ptr %43, i32 0, i32 1
  store ptr null, ptr %44, align 8, !tbaa !50
  %45 = load ptr, ptr %6, align 8, !tbaa !46
  %46 = load ptr, ptr %4, align 8, !tbaa !25
  %47 = getelementptr inbounds nuw %struct.UriUriStructW, ptr %46, i32 0, i32 5
  store ptr %45, ptr %47, align 8, !tbaa !35
  %48 = load ptr, ptr %6, align 8, !tbaa !46
  %49 = load ptr, ptr %4, align 8, !tbaa !25
  %50 = getelementptr inbounds nuw %struct.UriUriStructW, ptr %49, i32 0, i32 6
  store ptr %48, ptr %50, align 8, !tbaa !51
  store i32 0, ptr %7, align 4
  br label %51

51:                                               ; preds = %34, %33
  call void @llvm.lifetime.end.p0(i64 8, ptr %6) #5
  %52 = load i32, ptr %7, align 4
  switch i32 %52, label %60 [
    i32 0, label %53
    i32 1, label %58
  ]

53:                                               ; preds = %51
  br label %54

54:                                               ; preds = %53, %20
  %55 = load ptr, ptr %4, align 8, !tbaa !25
  %56 = getelementptr inbounds nuw %struct.UriUriStructW, ptr %55, i32 0, i32 9
  store i32 0, ptr %56, align 8, !tbaa !36
  br label %57

57:                                               ; preds = %54, %15, %11
  store i32 0, ptr %3, align 4
  br label %58

58:                                               ; preds = %57, %51, %10
  %59 = load i32, ptr %3, align 4
  ret i32 %59

60:                                               ; preds = %51
  unreachable
}